(dp0
S'EEE'
p1
(lp2
cdjango.db.models.base
model_unpickle
p3
((S'phd_info_mgmt_system'
p4
S'PhDCourses'
p5
tp6
(lp7
cdjango.db.models.base
simple_class_factory
p8
tp9
Rp10
(dp11
S'course_id'
p12
VEEE-F214
p13
sS'course_name'
p14
VAnalog Electronics
p15
sS'_state'
p16
ccopy_reg
_reconstructor
p17
(cdjango.db.models.base
ModelState
p18
c__builtin__
object
p19
Ntp20
Rp21
(dp22
S'adding'
p23
I00
sS'db'
p24
S'default'
p25
sbsS'credits'
p26
I3
sbag3
((g4
g5
tp27
(lp28
g8
tp29
Rp30
(dp31
g12
VEEE-F213
p32
sg14
VAdvanced Microprocessors
p33
sg16
g17
(g18
g19
Ntp34
Rp35
(dp36
g23
I00
sg24
g25
sbsg26
I3
sbag3
((g4
g5
tp37
(lp38
g8
tp39
Rp40
(dp41
g12
VEEE-F212
p42
sg14
VDigital Image Processing
p43
sg16
g17
(g18
g19
Ntp44
Rp45
(dp46
g23
I00
sg24
g25
sbsg26
I3
sbag3
((g4
g5
tp47
(lp48
g8
tp49
Rp50
(dp51
g12
VEEE-F211
p52
sg14
VPower Electronics
p53
sg16
g17
(g18
g19
Ntp54
Rp55
(dp56
g23
I00
sg24
g25
sbsg26
I3
sbasS'Humanities and Social Sciences'
p57
(lp58
g3
((g4
g5
tp59
(lp60
g8
tp61
Rp62
(dp63
g12
VHSS-F214
p64
sg14
VEffective PublicSpeaking
p65
sg16
g17
(g18
g19
Ntp66
Rp67
(dp68
g23
I00
sg24
g25
sbsg26
I3
sbag3
((g4
g5
tp69
(lp70
g8
tp71
Rp72
(dp73
g12
VHSS-F211
p74
sg14
VLinguistics
p75
sg16
g17
(g18
g19
Ntp76
Rp77
(dp78
g23
I00
sg24
g25
sbsg26
I3
sbag3
((g4
g5
tp79
(lp80
g8
tp81
Rp82
(dp83
g12
VHSS-F212
p84
sg14
VHeritage of India
p85
sg16
g17
(g18
g19
Ntp86
Rp87
(dp88
g23
I00
sg24
g25
sbsg26
I3
sbag3
((g4
g5
tp89
(lp90
g8
tp91
Rp92
(dp93
g12
VHSS-F213
p94
sg14
VAdvanced BusinessCommunication
p95
sg16
g17
(g18
g19
Ntp96
Rp97
(dp98
g23
I00
sg24
g25
sbsg26
I3
sbasS'Biological Sciences'
p99
(lp100
g3
((g4
g5
tp101
(lp102
g8
tp103
Rp104
(dp105
g12
VBIO-F214
p106
sg14
VAdvanced and Applied Microbiology
p107
sg16
g17
(g18
g19
Ntp108
Rp109
(dp110
g23
I00
sg24
g25
sbsg26
I3
sbag3
((g4
g5
tp111
(lp112
g8
tp113
Rp114
(dp115
g12
VBIO-F211
p116
sg14
VAdvanced Cell and Molecular Biology
p117
sg16
g17
(g18
g19
Ntp118
Rp119
(dp120
g23
I00
sg24
g25
sbsg26
I3
sbag3
((g4
g5
tp121
(lp122
g8
tp123
Rp124
(dp125
g12
VBIO-F212
p126
sg14
VPlant Biotechnology
p127
sg16
g17
(g18
g19
Ntp128
Rp129
(dp130
g23
I00
sg24
g25
sbsg26
I3
sbag3
((g4
g5
tp131
(lp132
g8
tp133
Rp134
(dp135
g12
VBIO-F213
p136
sg14
VIntroduction to Bioinformatics
p137
sg16
g17
(g18
g19
Ntp138
Rp139
(dp140
g23
I00
sg24
g25
sbsg26
I3
sbasS'Computer Science'
p141
(lp142
g3
((g4
g5
tp143
(lp144
g8
tp145
Rp146
(dp147
g12
VCS-F213
p148
sg14
VAdvanced Computer Architecture
p149
sg16
g17
(g18
g19
Ntp150
Rp151
(dp152
g23
I00
sg24
g25
sbsg26
I3
sbag3
((g4
g5
tp153
(lp154
g8
tp155
Rp156
(dp157
g12
VCS-F212
p158
sg14
VAdvanced Computer Networks
p159
sg16
g17
(g18
g19
Ntp160
Rp161
(dp162
g23
I00
sg24
g25
sbsg26
I3
sbag3
((g4
g5
tp163
(lp164
g8
tp165
Rp166
(dp167
g12
VCS-F211
p168
sg14
VInformation Retrieval
p169
sg16
g17
(g18
g19
Ntp170
Rp171
(dp172
g23
I00
sg24
g25
sbsg26
I3
sbag3
((g4
g5
tp173
(lp174
g8
tp175
Rp176
(dp177
g12
VCS-F215
p178
sg14
VDesign and Analysis ofAlgorithms
p179
sg16
g17
(g18
g19
Ntp180
Rp181
(dp182
g23
I00
sg24
g25
sbsg26
I3
sbag3
((g4
g5
tp183
(lp184
g8
tp185
Rp186
(dp187
g12
VCS-F214
p188
sg14
VComputational Geometry
p189
sg16
g17
(g18
g19
Ntp190
Rp191
(dp192
g23
I00
sg24
g25
sbsg26
I3
sbasS'Pharmacy'
p193
(lp194
g3
((g4
g5
tp195
(lp196
g8
tp197
Rp198
(dp199
g12
VPHA-F211
p200
sg14
VDispensing Pharmacy
p201
sg16
g17
(g18
g19
Ntp202
Rp203
(dp204
g23
I00
sg24
g25
sbsg26
I3
sbag3
((g4
g5
tp205
(lp206
g8
tp207
Rp208
(dp209
g12
VPHA-F213
p210
sg14
VPharmacology
p211
sg16
g17
(g18
g19
Ntp212
Rp213
(dp214
g23
I00
sg24
g25
sbsg26
I3
sbag3
((g4
g5
tp215
(lp216
g8
tp217
Rp218
(dp219
g12
VPHA-F212
p220
sg14
VPharmaceuticalChemistry
p221
sg16
g17
(g18
g19
Ntp222
Rp223
(dp224
g23
I00
sg24
g25
sbsg26
I3
sbag3
((g4
g5
tp225
(lp226
g8
tp227
Rp228
(dp229
g12
VPHA-F214
p230
sg14
VMedicinal Chemistry
p231
sg16
g17
(g18
g19
Ntp232
Rp233
(dp234
g23
I00
sg24
g25
sbsg26
I3
sbas.